(dp1
S'output'
p2
S"<type 'exceptions.IndexError'> list index out of range"
p3
sS'layer'
p4
S'/home/ayush/web2py/applications/IIIT_placement/views/tpo/home.html'
p5
sS'code'
p6
S'response.write(\'<!DOCTYPE html PUBLIC "-//W3C//DTD XHTML 1.0 Transitional//EN" "http://www.w3.org/TR/xhtml1/DTD/xhtml1-transitional.dtd">\\n<!--[if (gt IE 9)|!(IE)]><!--> <html class="no-js" lang="\', escape=False)\nresponse.write(T.accepted_language or \'en\')\nresponse.write(\'"> <!--<![endif]-->\\n<html xmlns="http://www.w3.org/1999/xhtml">\\n    <head>\\n    <meta http-equiv="Content-Type" content="text/html; charset=utf-8" />\\n    <meta name="viewport" content="width=device-width, initial-scale=1.0">\\n    <meta name="application-name" content="\', escape=False)\nresponse.write(request.application)\nresponse.write(\'">\\n    <meta name="google-site-verification" content="">\\n    <link rel="stylesheet" href="\', escape=False)\nresponse.write(URL(\'static\',\'css/bootstrap.min.css\'))\nresponse.write(\'"/>\\n    <link rel="stylesheet" href="\', escape=False)\nresponse.write(URL(\'static\',\'css/bootstrap-theme.min.css\'))\nresponse.write(\'"/>\\n    <link rel="stylesheet" href="\', escape=False)\nresponse.write(URL(\'static\',\'css/web2py-bootstrap3.css\'))\nresponse.write(\'"/>\\n    <link rel="stylesheet" href="\', escape=False)\nresponse.write(URL(\'static\',\'css/style.css\'))\nresponse.write(\'"/>\\n    <link rel="shortcut icon" href="\', escape=False)\nresponse.write(URL(\'static\',\'images/favicon.ico\'))\nresponse.write(\'" type="image/x-icon">\\n    <link rel="apple-touch-icon" href="\', escape=False)\nresponse.write(URL(\'static\',\'images/favicon.png\'))\nresponse.write(\'">\\n    <title>Placement</title>\\n    <script src="\', escape=False)\nresponse.write(URL(\'static\',\'js/modernizr-2.8.3.min.js\'))\nresponse.write(\'"></script>\\n     \', escape=False)\nresponse.write(\'<script type="text/javascript"><!--\\n    // These variables are used by the web2py_ajax_init function in web2py_ajax.js (which is loaded below).\\n    var w2p_ajax_confirm_message = "\', escape=False)\nresponse.write(T(\'Are you sure you want to delete this object?\'))\nresponse.write(\'";\\n    var w2p_ajax_disable_with_message = "\', escape=False)\nresponse.write(T(\'Working...\'))\nresponse.write(\'";\\n    var w2p_ajax_date_format = "\', escape=False)\nresponse.write(T(\'%Y-%m-%d\'))\nresponse.write(\'";\\n    var w2p_ajax_datetime_format = "\', escape=False)\nresponse.write(T(\'%Y-%m-%d %H:%M:%S\'))\nresponse.write(\'";\\n    var ajax_error_500 = \\\'\', escape=False)\nresponse.write(T.M(\'An error occured, please [[reload %s]] the page\') % URL(args=request.args, vars=request.get_vars))\nresponse.write("\'\\n    //--></script>\\n", escape=False)\nresponse.files.insert(0,URL(\'static\',\'js/jquery.js\'))\nresponse.files.insert(1,URL(\'static\',\'css/calendar.css\'))\nresponse.files.insert(2,URL(\'static\',\'js/calendar.js\'))\nresponse.files.insert(3,URL(\'static\',\'js/web2py.js\'))\nresponse.include_meta()\nresponse.include_files()\nresponse.write(\'\\n\', escape=False)\nresponse.write(\' <!-- this includes jquery.js, calendar.js/.css and web2py.js -->\\n    \', escape=False)\nresponse.write(\'\\n    </head>\\n    <body>\\n        <!--[if lt IE 8]><p class="browserupgrade">You are using an <strong>outdated</strong> browser. Please <a href="http://browsehappy.com/">upgrade your browser</a> to improve your experience.</p><![endif]-->\\n        <div class="flash alert alert-dismissable">\', escape=False)\nresponse.write(response.flash or \'\')\nresponse.write(\'</div>\\n        <div class="wrapper123">\\n\\n  <!-- Header Starts -->\\n  <div class="header123">\\n    <div class="header-container123">\\n      <div class="logo123"> <a href="#">Placement IIIT</a> </div>\\n      <div class="toll-free123">\\n        <p>International Institute of Information Technology, Hyderabad</p>\\n      </div>\\n      <div class="clear123"></div>\\n    </div>\\n  </div>\\n <div class="nav123">\\n    <div class="nav-in123">\\n        <ul>\\n            \', escape=False)\nif response.menu:\n    response.write(\'\\n          \', escape=False)\n    response.write(MENU(response.menu, _class=\'nav123\',li_class=\'last123\',ul_class=\'nav-in123\'))\n    response.write(\'\\n          \', escape=False)\n    pass\nresponse.write(\'\\n        </ul>\\n      <div class="clear123"></div>\\n    </div>\\n      <div class="collapse navbar-collapse navbar-ex1-collapse" style="float:right;width:auto; min-width:200px; color: #333333;">\\n             <ul class="nav navbar-nav navbar-right" style="color: #333333;">\\n           \', escape=False)\nresponse.write(\'auth\' in globals() and auth.navbar(mode=\'dropdown\') or \'\')\nresponse.write(\'\\n          </ul>\\n        </div>\\n  </div>\\n  <div class="container123">\\n    <div class="container-in123"> <img src="\', escape=False)\nresponse.write(URL(\'static\',\'images/container-bg.gif\'))\nresponse.write(\'" width="900" aling="center" height="310" alt="IIIT Placements" />\\n    </div>\\n    </div>\\n    <div class="container123">\\n        \', escape=False)\nresponse.write(\'\\n<h1>Welcome TPO Home</h1>\\n\\n<form method="post" name="sub_it" action="\', escape=False)\nresponse.write(URL(\'tpo\',\'selected\'))\nresponse.write(\'">\\n<div class="welcome123">\\n    <div class="CSSTableGenerator" >\\n                <table >\\n                    <tr>\\n                        <td>\\n                           Company Name\\n                        </td>\\n                        <td >\\n                            CSV Status\\n                        </td>\\n                          <td >\\n                            Posting Status\\n                        </td>\\n                        <td>\\n                           DISPLAY\\n                        </td>\\n                        <td>\\n                           Send email\\n                        </td>\\n                    </tr>\\n                 \', escape=False)\nfor r in string:\n    response.write(\'\\n            \', escape=False)\n    if r.find(\',\')==0:\n        response.write(\'\\n                    \', escape=False)\n        r=r[1:]\n        response.write(\'\\n                    <tr>\\n                        <td >\\n                           \', escape=False)\n        temp=r.split(\',\')\n        response.write(\'\\n                           <a href="\', escape=False)\n        response.write(URL(\'tpo\',\'display_details\',vars={\'id\':temp[1],\'name\':temp[0]}))\n        response.write(\'">\', escape=False)\n        response.write(temp[0])\n        response.write(\'</a>\\n                        </td>\\n                        <td style="color:red">\\n                             Incomplete\\n                        </td>\\n                            \', escape=False)\n        if str(temp[2])==\'True\':\n            response.write(\'\\n                            <td style="color:green">\\n                                Active\\n                            </td>\\n                               \', escape=False)\n        else:\n            response.write(\'\\n                             <td style="color:red">\\n                                InActive\\n                            </td>\\n                            \', escape=False)\n            pass\n        response.write(\'\\n\\n                            <td>\\n                        \', escape=False)\n        if str(temp[3])==\'True\':\n            response.write(\'\\n                                <input type="checkbox" name="\', escape=False)\n            response.write(temp[1])\n            response.write(\'" value="\', escape=False)\n            response.write(temp[1])\n            response.write(\'" checked="checked">\\n                                \', escape=False)\n        else:\n            response.write(\'\\n                            <input type="checkbox" name="\', escape=False)\n            response.write(temp[1])\n            response.write(\'" value="\', escape=False)\n            response.write(temp[1])\n            response.write(\'">\\n                        \', escape=False)\n            pass\n        response.write(\'\\n                        </td>\\n                        <td>\\n                        <form name="send_email" method="post" action="\', escape=False)\n        response.write(URL(\'tpo\',\'email\'))\n        response.write(\'">\\n                           <input type="text" value="\', escape=False)\n        response.write(temp[4])\n        response.write(\'" name="emailid"  style="display:none;">\\n                           <input type="submit"  value="Send Email" name="send_mail">\\n                        </form>  \\n                          </td>  \\n                    </tr>\\n                      \', escape=False)\n        pass\n    response.write(\'\\n                      \', escape=False)\n    pass\nresponse.write(\'\\n             \', escape=False)\ncount=0\nfor r in rows:\n    temp=int(r.find(\',,\'))\n    cname=r.split(\',\')\n    response.write(\'\\n                    \', escape=False)\n    response.write(cname[3])\n    response.write(\',\\n                    \', escape=False)\n    pass\nresponse.write(\'\\n                    <tr>\\n                            <td colspan="5"><input type="submit" value="Submit"></td>\\n                   </tr>\\n        </table>\\n    </div>\\n      </div>\\n</form>\\n     <div class="clear123"></div>\\n\', escape=False)\nresponse.write(\'\\n    </div>\\n    <div class="footer123">\\n    <div class="footer-in123">\\n      <div class="copy123">\\n        <p>Copyright &copy; 2015 IIITWebTeam. All rights reserved. Design by <a href="" target="_blank" rel="nofollow">Kalpish &amp; ayush</a></p>\\n      </div>\\n      <div class="clear123"></div>\\n    </div>\\n  </div>\\n        <!-- The javascript =============================== -->\\n    <script src="\', escape=False)\nresponse.write(URL(\'static\',\'js/bootstrap.min.js\'))\nresponse.write(\'"></script>\\n    <script src="\', escape=False)\nresponse.write(URL(\'static\',\'js/web2py-bootstrap3.js\'))\nresponse.write(\'"></script>\\n    \', escape=False)\nresponse.write(\'\\n    \', escape=False)\nif response.google_analytics_id:\n    response.write(\'\\n    <!-- Analytics ==================================== -->\\n    <script src="\', escape=False)\n    response.write(URL(\'static\',\'js/analytics.min.js\'))\n    response.write(\'"></script>\\n    <script type="text/javascript">\\n      analytics.initialize({\\n      \\\'Google Analytics\\\':{trackingId:\\\'\', escape=False)\n    response.write(response.google_analytics_id)\n    response.write("\'}\\n      });\\n    </script>\\n    ", escape=False)\n    pass\nresponse.write(\'\\n    <!-- Share ============================y============ -->\\n    <script src="\', escape=False)\nresponse.write(URL(\'static\',\'js/share.js\',vars=dict(static=URL(\'static\',\'images\'))))\nresponse.write(\'"></script>\\n        </div>\\n    </body>\\n</html>\\n\', escape=False)'
p7
sS'snapshot'
p8
(dp9
sS'traceback'
p10
S'Traceback (most recent call last):\n  File "/home/ayush/web2py/gluon/restricted.py", line 227, in restricted\n    exec ccode in environment\n  File "/home/ayush/web2py/applications/IIIT_placement/views/tpo/home.html", line 100, in <module>\nIndexError: list index out of range\n'
p11
s.